; Function Attrs: nofree nounwind uwtable
define noundef i32 @SUNAdaptController_Write_ImExGus(ptr noundef readonly captures(none) %0, ptr noundef captures(none) %1) #4 {
  %3 = tail call i64 @fwrite(ptr nonnull @.str, i64 43, i64 1, ptr %1)
  %4 = load ptr, ptr %0, align 8, !tbaa !19
  %5 = getelementptr inbounds nuw i8, ptr %4, i64 16
  %6 = load double, ptr %5, align 8, !tbaa !20
  %7 = tail call i32 (ptr, ptr, ...) @fprintf(ptr noundef %1, ptr noundef nonnull @.str.1, double noundef %6) #10
  %8 = load ptr, ptr %0, align 8, !tbaa !19
  %9 = getelementptr inbounds nuw i8, ptr %8, i64 24
  %10 = load double, ptr %9, align 8, !tbaa !24
  %11 = tail call i32 (ptr, ptr, ...) @fprintf(ptr noundef %1, ptr noundef nonnull @.str.2, double noundef %10) #10
  %12 = load ptr, ptr %0, align 8, !tbaa !19
  %13 = load double, ptr %12, align 8, !tbaa !25
  %14 = tail call i32 (ptr, ptr, ...) @fprintf(ptr noundef %1, ptr noundef nonnull @.str.3, double noundef %13) #10
  %15 = load ptr, ptr %0, align 8, !tbaa !19
  %16 = getelementptr inbounds nuw i8, ptr %15, i64 8
  %17 = load double, ptr %16, align 8, !tbaa !26
  %18 = tail call i32 (ptr, ptr, ...) @fprintf(ptr noundef %1, ptr noundef nonnull @.str.4, double noundef %17) #10
  %19 = load ptr, ptr %0, align 8, !tbaa !19
  %20 = getelementptr inbounds nuw i8, ptr %19, i64 32
  %21 = load double, ptr %20, align 8, !tbaa !27
  %22 = tail call i32 (ptr, ptr, ...) @fprintf(ptr noundef %1, ptr noundef nonnull @.str.5, double noundef %21) #10
  %23 = load ptr, ptr %0, align 8, !tbaa !19
  %24 = getelementptr inbounds nuw i8, ptr %23, i64 40
  %25 = load double, ptr %24, align 8, !tbaa !28
  %26 = tail call i32 (ptr, ptr, ...) @fprintf(ptr noundef %1, ptr noundef nonnull @.str.6, double noundef %25) #10
  %27 = load ptr, ptr %0, align 8, !tbaa !19
  %28 = getelementptr inbounds nuw i8, ptr %27, i64 48
  %29 = load double, ptr %28, align 8, !tbaa !30
  %30 = tail call i32 (ptr, ptr, ...) @fprintf(ptr noundef %1, ptr noundef nonnull @.str.7, double noundef %29) #10
  ret i32 0
}